target datalayout = "e-m:e-p270:32:32-p271:32:32-p272:64:64-i64:64-i128:128-f80:128-n8:16:32:64-S128"
target triple = "x86_64-pc-linux-gnu"

; Function Attrs: nounwind uwtable
define i32 @Sim_UtilInfoIsImp(ptr noundef %0, ptr noundef %1, i32 noundef %2) #0 {
  %4 = alloca i32, align 4
  %5 = alloca ptr, align 8
  %6 = alloca ptr, align 8
  %7 = alloca i32, align 4
  %8 = alloca i32, align 4
  %9 = alloca i32, align 4
  store ptr %0, ptr %5, align 8, !tbaa !17
  store ptr %1, ptr %6, align 8, !tbaa !17
  store i32 %2, ptr %7, align 4, !tbaa !3
  call void @llvm.lifetime.start.p0(i64 4, ptr %8) #8
  store i32 0, ptr %8, align 4, !tbaa !3
  br label %10

10:                                               ; preds = %30, %3
  %11 = load i32, ptr %8, align 4, !tbaa !3
  %12 = load i32, ptr %7, align 4, !tbaa !3
  %13 = icmp slt i32 %11, %12
  br i1 %13, label %14, label %33

14:                                               ; preds = %10
  %15 = load ptr, ptr %5, align 8, !tbaa !17
  %16 = load i32, ptr %8, align 4, !tbaa !3
  %17 = sext i32 %16 to i64
  %18 = getelementptr inbounds i32, ptr %15, i64 %17
  %19 = load i32, ptr %18, align 4, !tbaa !3
  %20 = load ptr, ptr %6, align 8, !tbaa !17
  %21 = load i32, ptr %8, align 4, !tbaa !3
  %22 = sext i32 %21 to i64
  %23 = getelementptr inbounds i32, ptr %20, i64 %22
  %24 = load i32, ptr %23, align 4, !tbaa !3
  %25 = xor i32 %24, -1
  %26 = and i32 %19, %25
  %27 = icmp ne i32 %26, 0
  br i1 %27, label %28, label %29

28:                                               ; preds = %14
  store i32 0, ptr %4, align 4
  store i32 1, ptr %9, align 4
  br label %34

29:                                               ; preds = %14
  br label %30

30:                                               ; preds = %29
  %31 = load i32, ptr %8, align 4, !tbaa !3
  %32 = add nsw i32 %31, 1
  store i32 %32, ptr %8, align 4, !tbaa !3
  br label %10, !llvm.loop !91

33:                                               ; preds = %10
  store i32 1, ptr %4, align 4
  store i32 1, ptr %9, align 4
  br label %34

34:                                               ; preds = %33, %28
  call void @llvm.lifetime.end.p0(i64 4, ptr %8) #8
  %35 = load i32, ptr %4, align 4
  ret i32 %35
}